target datalayout = "e-m:e-p270:32:32-p271:32:32-p272:64:64-i64:64-i128:128-f80:128-n8:16:32:64-S128"
target triple = "x86_64-pc-linux-gnu"

@rw = internal global i32 3, align 4

; Function Attrs: nounwind sspstrong uwtable
define internal void @vcpu_tb_trans(i64 noundef %0, ptr noundef %1) #0 {
  %3 = alloca i64, align 8
  %4 = alloca ptr, align 8
  %5 = alloca i64, align 8
  %6 = alloca i64, align 8
  %7 = alloca ptr, align 8
  store i64 %0, ptr %3, align 8
  store ptr %1, ptr %4, align 8
  call void @llvm.lifetime.start.p0(i64 8, ptr %5) #9
  %8 = load ptr, ptr %4, align 8
  %9 = call i64 @qemu_plugin_tb_n_insns(ptr noundef %8)
  store i64 %9, ptr %5, align 8
  call void @llvm.lifetime.start.p0(i64 8, ptr %6) #9
  store i64 0, ptr %6, align 8, !annotation !3
  store i64 0, ptr %6, align 8
  br label %10

10:                                               ; preds = %20, %2
  %11 = load i64, ptr %6, align 8
  %12 = load i64, ptr %5, align 8
  %13 = icmp ult i64 %11, %12
  br i1 %13, label %14, label %23

14:                                               ; preds = %10
  call void @llvm.lifetime.start.p0(i64 8, ptr %7) #9
  %15 = load ptr, ptr %4, align 8
  %16 = load i64, ptr %6, align 8
  %17 = call ptr @qemu_plugin_tb_get_insn(ptr noundef %15, i64 noundef %16)
  store ptr %17, ptr %7, align 8
  %18 = load ptr, ptr %7, align 8
  %19 = load i32, ptr @rw, align 4
  call void @qemu_plugin_register_vcpu_mem_cb(ptr noundef %18, ptr noundef @vcpu_haddr, i32 noundef 0, i32 noundef %19, ptr noundef null)
  call void @llvm.lifetime.end.p0(i64 8, ptr %7) #9
  br label %20

20:                                               ; preds = %14
  %21 = load i64, ptr %6, align 8
  %22 = add i64 %21, 1
  store i64 %22, ptr %6, align 8
  br label %10, !llvm.loop !6

23:                                               ; preds = %10
  call void @llvm.lifetime.end.p0(i64 8, ptr %6) #9
  call void @llvm.lifetime.end.p0(i64 8, ptr %5) #9
  ret void
}