; Function Attrs: nounwind sspstrong uwtable
define internal void @vcpu_tb_trans(i64 %0, ptr noundef %1) #0 {
  %3 = tail call i64 @qemu_plugin_tb_n_insns(ptr noundef %1) #6
  %.not = icmp eq i64 %3, 0
  br i1 %.not, label %._crit_edge, label %.lr.ph

.lr.ph:                                           ; preds = %2, %.lr.ph
  %.06 = phi i64 [ %5, %.lr.ph ], [ 0, %2 ]
  %4 = tail call ptr @qemu_plugin_tb_get_insn(ptr noundef %1, i64 noundef %.06) #6
  tail call void @qemu_plugin_register_vcpu_mem_cb(ptr noundef %4, ptr noundef nonnull @vcpu_haddr, i32 noundef 0, i32 noundef 3, ptr noundef null) #6
  %5 = add nuw i64 %.06, 1
  %exitcond.not = icmp eq i64 %5, %3
  br i1 %exitcond.not, label %._crit_edge, label %.lr.ph, !llvm.loop !5

._crit_edge:                                      ; preds = %.lr.ph, %2
  ret void
}